target datalayout = "e-m:e-p270:32:32-p271:32:32-p272:64:64-i64:64-i128:128-f80:128-n8:16:32:64-S128"
target triple = "x86_64-pc-linux-gnu"

%struct.mbedtls_chacha20_context = type { [16 x i32], [64 x i8], i64 }

; Function Attrs: alwaysinline nounwind uwtable
define internal void @mbedtls_put_unaligned_uint64(ptr noundef %0, i64 noundef %1) #2 {
  %3 = alloca ptr, align 8
  %4 = alloca i64, align 8
  store ptr %0, ptr %3, align 8, !tbaa !15
  store i64 %1, ptr %4, align 8, !tbaa !16
  %5 = load ptr, ptr %3, align 8, !tbaa !15
  call void @llvm.memcpy.p0.p0.i64(ptr align 1 %5, ptr align 8 %4, i64 8, i1 false)
  ret void
}

; Function Attrs: alwaysinline nounwind uwtable
define internal i64 @mbedtls_get_unaligned_uint64(ptr noundef %0) #2 {
  %2 = alloca ptr, align 8
  %3 = alloca i64, align 8
  store ptr %0, ptr %2, align 8, !tbaa !15
  call void @llvm.lifetime.start.p0(i64 8, ptr %3) #7
  %4 = load ptr, ptr %2, align 8, !tbaa !15
  call void @llvm.memcpy.p0.p0.i64(ptr align 8 %3, ptr align 1 %4, i64 8, i1 false)
  %5 = load i64, ptr %3, align 8, !tbaa !16
  call void @llvm.lifetime.end.p0(i64 8, ptr %3) #7
  ret i64 %5
}

; Function Attrs: alwaysinline nounwind uwtable
define internal void @mbedtls_xor(ptr noundef %0, ptr noundef %1, ptr noundef %2, i64 noundef %3) #2 {
  %5 = alloca ptr, align 8
  %6 = alloca ptr, align 8
  %7 = alloca ptr, align 8
  %8 = alloca i64, align 8
  %9 = alloca i64, align 8
  %10 = alloca i64, align 8
  store ptr %0, ptr %5, align 8, !tbaa !11
  store ptr %1, ptr %6, align 8, !tbaa !11
  store ptr %2, ptr %7, align 8, !tbaa !11
  store i64 %3, ptr %8, align 8, !tbaa !16
  call void @llvm.lifetime.start.p0(i64 8, ptr %9) #7
  store i64 0, ptr %9, align 8, !tbaa !16
  br label %11

11:                                               ; preds = %30, %4
  %12 = load i64, ptr %9, align 8, !tbaa !16
  %13 = add i64 %12, 8
  %14 = load i64, ptr %8, align 8, !tbaa !16
  %15 = icmp ule i64 %13, %14
  br i1 %15, label %16, label %33

16:                                               ; preds = %11
  call void @llvm.lifetime.start.p0(i64 8, ptr %10) #7
  %17 = load ptr, ptr %6, align 8, !tbaa !11
  %18 = load i64, ptr %9, align 8, !tbaa !16
  %19 = getelementptr inbounds nuw i8, ptr %17, i64 %18
  %20 = call i64 @mbedtls_get_unaligned_uint64(ptr noundef %19)
  %21 = load ptr, ptr %7, align 8, !tbaa !11
  %22 = load i64, ptr %9, align 8, !tbaa !16
  %23 = getelementptr inbounds nuw i8, ptr %21, i64 %22
  %24 = call i64 @mbedtls_get_unaligned_uint64(ptr noundef %23)
  %25 = xor i64 %20, %24
  store i64 %25, ptr %10, align 8, !tbaa !16
  %26 = load ptr, ptr %5, align 8, !tbaa !11
  %27 = load i64, ptr %9, align 8, !tbaa !16
  %28 = getelementptr inbounds nuw i8, ptr %26, i64 %27
  %29 = load i64, ptr %10, align 8, !tbaa !16
  call void @mbedtls_put_unaligned_uint64(ptr noundef %28, i64 noundef %29)
  call void @llvm.lifetime.end.p0(i64 8, ptr %10) #7
  br label %30

30:                                               ; preds = %16
  %31 = load i64, ptr %9, align 8, !tbaa !16
  %32 = add i64 %31, 8
  store i64 %32, ptr %9, align 8, !tbaa !16
  br label %11, !llvm.loop !25

33:                                               ; preds = %11
  br label %34

34:                                               ; preds = %54, %33
  %35 = load i64, ptr %9, align 8, !tbaa !16
  %36 = load i64, ptr %8, align 8, !tbaa !16
  %37 = icmp ult i64 %35, %36
  br i1 %37, label %38, label %57

38:                                               ; preds = %34
  %39 = load ptr, ptr %6, align 8, !tbaa !11
  %40 = load i64, ptr %9, align 8, !tbaa !16
  %41 = getelementptr inbounds nuw i8, ptr %39, i64 %40
  %42 = load i8, ptr %41, align 1, !tbaa !17
  %43 = zext i8 %42 to i32
  %44 = load ptr, ptr %7, align 8, !tbaa !11
  %45 = load i64, ptr %9, align 8, !tbaa !16
  %46 = getelementptr inbounds nuw i8, ptr %44, i64 %45
  %47 = load i8, ptr %46, align 1, !tbaa !17
  %48 = zext i8 %47 to i32
  %49 = xor i32 %43, %48
  %50 = trunc i32 %49 to i8
  %51 = load ptr, ptr %5, align 8, !tbaa !11
  %52 = load i64, ptr %9, align 8, !tbaa !16
  %53 = getelementptr inbounds nuw i8, ptr %51, i64 %52
  store i8 %50, ptr %53, align 1, !tbaa !17
  br label %54

54:                                               ; preds = %38
  %55 = load i64, ptr %9, align 8, !tbaa !16
  %56 = add i64 %55, 1
  store i64 %56, ptr %9, align 8, !tbaa !16
  br label %34, !llvm.loop !26

57:                                               ; preds = %34
  call void @llvm.lifetime.end.p0(i64 8, ptr %9) #7
  ret void
}

; Function Attrs: nounwind uwtable
define hidden i32 @mbedtls_chacha20_update(ptr noundef %0, i64 noundef %1, ptr noundef %2, ptr noundef %3) #0 {
  %5 = alloca ptr, align 8
  %6 = alloca i64, align 8
  %7 = alloca ptr, align 8
  %8 = alloca ptr, align 8
  %9 = alloca i64, align 8
  store ptr %0, ptr %5, align 8, !tbaa !3
  store i64 %1, ptr %6, align 8, !tbaa !16
  store ptr %2, ptr %7, align 8, !tbaa !11
  store ptr %3, ptr %8, align 8, !tbaa !11
  call void @llvm.lifetime.start.p0(i64 8, ptr %9) #7
  store i64 0, ptr %9, align 8, !tbaa !16
  br label %10

10:                                               ; preds = %20, %4
  %11 = load i64, ptr %6, align 8, !tbaa !16
  %12 = icmp ugt i64 %11, 0
  br i1 %12, label %13, label %18

13:                                               ; preds = %10
  %14 = load ptr, ptr %5, align 8, !tbaa !3
  %15 = getelementptr inbounds nuw %struct.mbedtls_chacha20_context, ptr %14, i32 0, i32 2
  %16 = load i64, ptr %15, align 8, !tbaa !8
  %17 = icmp ult i64 %16, 64
  br label %18

18:                                               ; preds = %13, %10
  %19 = phi i1 [ false, %10 ], [ %17, %13 ]
  br i1 %19, label %20, label %47

20:                                               ; preds = %18
  %21 = load ptr, ptr %7, align 8, !tbaa !11
  %22 = load i64, ptr %9, align 8, !tbaa !16
  %23 = getelementptr inbounds nuw i8, ptr %21, i64 %22
  %24 = load i8, ptr %23, align 1, !tbaa !17
  %25 = zext i8 %24 to i32
  %26 = load ptr, ptr %5, align 8, !tbaa !3
  %27 = getelementptr inbounds nuw %struct.mbedtls_chacha20_context, ptr %26, i32 0, i32 1
  %28 = load ptr, ptr %5, align 8, !tbaa !3
  %29 = getelementptr inbounds nuw %struct.mbedtls_chacha20_context, ptr %28, i32 0, i32 2
  %30 = load i64, ptr %29, align 8, !tbaa !8
  %31 = getelementptr inbounds nuw [64 x i8], ptr %27, i64 0, i64 %30
  %32 = load i8, ptr %31, align 1, !tbaa !17
  %33 = zext i8 %32 to i32
  %34 = xor i32 %25, %33
  %35 = trunc i32 %34 to i8
  %36 = load ptr, ptr %8, align 8, !tbaa !11
  %37 = load i64, ptr %9, align 8, !tbaa !16
  %38 = getelementptr inbounds nuw i8, ptr %36, i64 %37
  store i8 %35, ptr %38, align 1, !tbaa !17
  %39 = load ptr, ptr %5, align 8, !tbaa !3
  %40 = getelementptr inbounds nuw %struct.mbedtls_chacha20_context, ptr %39, i32 0, i32 2
  %41 = load i64, ptr %40, align 8, !tbaa !8
  %42 = add i64 %41, 1
  store i64 %42, ptr %40, align 8, !tbaa !8
  %43 = load i64, ptr %9, align 8, !tbaa !16
  %44 = add i64 %43, 1
  store i64 %44, ptr %9, align 8, !tbaa !16
  %45 = load i64, ptr %6, align 8, !tbaa !16
  %46 = add i64 %45, -1
  store i64 %46, ptr %6, align 8, !tbaa !16
  br label %10, !llvm.loop !18

47:                                               ; preds = %18
  br label %48

48:                                               ; preds = %51, %47
  %49 = load i64, ptr %6, align 8, !tbaa !16
  %50 = icmp uge i64 %49, 64
  br i1 %50, label %51, label %76

51:                                               ; preds = %48
  %52 = load ptr, ptr %5, align 8, !tbaa !3
  %53 = getelementptr inbounds nuw %struct.mbedtls_chacha20_context, ptr %52, i32 0, i32 0
  %54 = getelementptr inbounds [16 x i32], ptr %53, i64 0, i64 0
  %55 = load ptr, ptr %5, align 8, !tbaa !3
  %56 = getelementptr inbounds nuw %struct.mbedtls_chacha20_context, ptr %55, i32 0, i32 1
  %57 = getelementptr inbounds [64 x i8], ptr %56, i64 0, i64 0
  call void @chacha20_block(ptr noundef %54, ptr noundef %57)
  %58 = load ptr, ptr %5, align 8, !tbaa !3
  %59 = getelementptr inbounds nuw %struct.mbedtls_chacha20_context, ptr %58, i32 0, i32 0
  %60 = getelementptr inbounds nuw [16 x i32], ptr %59, i64 0, i64 12
  %61 = load i32, ptr %60, align 8, !tbaa !13
  %62 = add i32 %61, 1
  store i32 %62, ptr %60, align 8, !tbaa !13
  %63 = load ptr, ptr %8, align 8, !tbaa !11
  %64 = load i64, ptr %9, align 8, !tbaa !16
  %65 = getelementptr inbounds nuw i8, ptr %63, i64 %64
  %66 = load ptr, ptr %7, align 8, !tbaa !11
  %67 = load i64, ptr %9, align 8, !tbaa !16
  %68 = getelementptr inbounds nuw i8, ptr %66, i64 %67
  %69 = load ptr, ptr %5, align 8, !tbaa !3
  %70 = getelementptr inbounds nuw %struct.mbedtls_chacha20_context, ptr %69, i32 0, i32 1
  %71 = getelementptr inbounds [64 x i8], ptr %70, i64 0, i64 0
  call void @mbedtls_xor(ptr noundef %65, ptr noundef %68, ptr noundef %71, i64 noundef 64)
  %72 = load i64, ptr %9, align 8, !tbaa !16
  %73 = add i64 %72, 64
  store i64 %73, ptr %9, align 8, !tbaa !16
  %74 = load i64, ptr %6, align 8, !tbaa !16
  %75 = sub i64 %74, 64
  store i64 %75, ptr %6, align 8, !tbaa !16
  br label %48, !llvm.loop !20

76:                                               ; preds = %48
  %77 = load i64, ptr %6, align 8, !tbaa !16
  %78 = icmp ugt i64 %77, 0
  br i1 %78, label %79, label %104

79:                                               ; preds = %76
  %80 = load ptr, ptr %5, align 8, !tbaa !3
  %81 = getelementptr inbounds nuw %struct.mbedtls_chacha20_context, ptr %80, i32 0, i32 0
  %82 = getelementptr inbounds [16 x i32], ptr %81, i64 0, i64 0
  %83 = load ptr, ptr %5, align 8, !tbaa !3
  %84 = getelementptr inbounds nuw %struct.mbedtls_chacha20_context, ptr %83, i32 0, i32 1
  %85 = getelementptr inbounds [64 x i8], ptr %84, i64 0, i64 0
  call void @chacha20_block(ptr noundef %82, ptr noundef %85)
  %86 = load ptr, ptr %5, align 8, !tbaa !3
  %87 = getelementptr inbounds nuw %struct.mbedtls_chacha20_context, ptr %86, i32 0, i32 0
  %88 = getelementptr inbounds nuw [16 x i32], ptr %87, i64 0, i64 12
  %89 = load i32, ptr %88, align 8, !tbaa !13
  %90 = add i32 %89, 1
  store i32 %90, ptr %88, align 8, !tbaa !13
  %91 = load ptr, ptr %8, align 8, !tbaa !11
  %92 = load i64, ptr %9, align 8, !tbaa !16
  %93 = getelementptr inbounds nuw i8, ptr %91, i64 %92
  %94 = load ptr, ptr %7, align 8, !tbaa !11
  %95 = load i64, ptr %9, align 8, !tbaa !16
  %96 = getelementptr inbounds nuw i8, ptr %94, i64 %95
  %97 = load ptr, ptr %5, align 8, !tbaa !3
  %98 = getelementptr inbounds nuw %struct.mbedtls_chacha20_context, ptr %97, i32 0, i32 1
  %99 = getelementptr inbounds [64 x i8], ptr %98, i64 0, i64 0
  %100 = load i64, ptr %6, align 8, !tbaa !16
  call void @mbedtls_xor(ptr noundef %93, ptr noundef %96, ptr noundef %99, i64 noundef %100)
  %101 = load i64, ptr %6, align 8, !tbaa !16
  %102 = load ptr, ptr %5, align 8, !tbaa !3
  %103 = getelementptr inbounds nuw %struct.mbedtls_chacha20_context, ptr %102, i32 0, i32 2
  store i64 %101, ptr %103, align 8, !tbaa !8
  br label %104

104:                                              ; preds = %79, %76
  call void @llvm.lifetime.end.p0(i64 8, ptr %9) #7
  ret i32 0
}