; Function Attrs: nounwind uwtable
define hidden noundef i32 @mbedtls_chacha20_update(ptr noundef captures(none) %0, i64 noundef %1, ptr noundef readonly captures(none) %2, ptr noundef writeonly captures(none) %3) local_unnamed_addr #0 {
  %5 = getelementptr inbounds nuw i8, ptr %0, i64 128
  %.not45 = icmp eq i64 %1, 0
  br i1 %.not45, label %._crit_edge.thread, label %.lr.ph

.lr.ph:                                           ; preds = %4
  %6 = getelementptr inbounds nuw i8, ptr %0, i64 64
  %.pre = load i64, ptr %5, align 8, !tbaa !3
  br label %7

7:                                                ; preds = %.lr.ph, %10
  %8 = phi i64 [ %.pre, %.lr.ph ], [ %18, %10 ]
  %.047 = phi i64 [ 0, %.lr.ph ], [ %19, %10 ]
  %.03346 = phi i64 [ %1, %.lr.ph ], [ %20, %10 ]
  %9 = icmp ult i64 %8, 64
  br i1 %9, label %10, label %.critedge

10:                                               ; preds = %7
  %11 = getelementptr inbounds nuw i8, ptr %2, i64 %.047
  %12 = load i8, ptr %11, align 1, !tbaa !10
  %13 = getelementptr inbounds nuw [64 x i8], ptr %6, i64 0, i64 %8
  %14 = load i8, ptr %13, align 1, !tbaa !10
  %15 = xor i8 %14, %12
  %16 = getelementptr inbounds nuw i8, ptr %3, i64 %.047
  store i8 %15, ptr %16, align 1, !tbaa !10
  %17 = load i64, ptr %5, align 8, !tbaa !3
  %18 = add i64 %17, 1
  store i64 %18, ptr %5, align 8, !tbaa !3
  %19 = add nuw i64 %.047, 1
  %20 = add i64 %.03346, -1
  %.not = icmp eq i64 %20, 0
  br i1 %.not, label %._crit_edge.thread, label %7, !llvm.loop !11

.critedge:                                        ; preds = %7
  %21 = icmp ugt i64 %.03346, 63
  br i1 %21, label %.lr.ph57, label %._crit_edge.thread75

.lr.ph57:                                         ; preds = %.critedge
  %22 = getelementptr inbounds nuw i8, ptr %0, i64 64
  %23 = getelementptr inbounds nuw i8, ptr %0, i64 48
  br label %24

24:                                               ; preds = %.lr.ph57, %mbedtls_xor.exit
  %.156 = phi i64 [ %.047, %.lr.ph57 ], [ %35, %mbedtls_xor.exit ]
  %.13455 = phi i64 [ %.03346, %.lr.ph57 ], [ %36, %mbedtls_xor.exit ]
  tail call fastcc void @chacha20_block(ptr noundef nonnull %0, ptr noundef nonnull %22)
  %25 = load i32, ptr %23, align 8, !tbaa !8
  %26 = add i32 %25, 1
  store i32 %26, ptr %23, align 8, !tbaa !8
  %27 = getelementptr inbounds nuw i8, ptr %3, i64 %.156
  %28 = getelementptr inbounds nuw i8, ptr %2, i64 %.156
  br label %29

29:                                               ; preds = %24, %29
  %.0.i52 = phi i64 [ 0, %24 ], [ %30, %29 ]
  %30 = add nuw nsw i64 %.0.i52, 8
  %31 = getelementptr inbounds nuw i8, ptr %28, i64 %.0.i52
  %.0.copyload.i43 = load i64, ptr %31, align 1
  %32 = getelementptr inbounds nuw i8, ptr %22, i64 %.0.i52
  %.0.copyload.i42 = load i64, ptr %32, align 1
  %33 = xor i64 %.0.copyload.i42, %.0.copyload.i43
  %34 = getelementptr inbounds nuw i8, ptr %27, i64 %.0.i52
  store i64 %33, ptr %34, align 1
  %.not.i = icmp samesign ugt i64 %.0.i52, 48
  br i1 %.not.i, label %mbedtls_xor.exit, label %29, !llvm.loop !13

mbedtls_xor.exit:                                 ; preds = %29
  %35 = add i64 %.156, 64
  %36 = add i64 %.13455, -64
  %37 = icmp ugt i64 %36, 63
  br i1 %37, label %24, label %._crit_edge, !llvm.loop !14

._crit_edge:                                      ; preds = %mbedtls_xor.exit
  %.not36 = icmp eq i64 %36, 0
  br i1 %.not36, label %._crit_edge.thread, label %._crit_edge.thread75

._crit_edge.thread75:                             ; preds = %.critedge, %._crit_edge
  %.1.lcssa80 = phi i64 [ %35, %._crit_edge ], [ %.047, %.critedge ]
  %.134.lcssa79 = phi i64 [ %36, %._crit_edge ], [ %.03346, %.critedge ]
  %38 = getelementptr inbounds nuw i8, ptr %0, i64 64
  tail call fastcc void @chacha20_block(ptr noundef nonnull %0, ptr noundef nonnull %38)
  %39 = getelementptr inbounds nuw i8, ptr %0, i64 48
  %40 = load i32, ptr %39, align 8, !tbaa !8
  %41 = add i32 %40, 1
  store i32 %41, ptr %39, align 8, !tbaa !8
  %42 = getelementptr inbounds nuw i8, ptr %3, i64 %.1.lcssa80
  %43 = getelementptr inbounds nuw i8, ptr %2, i64 %.1.lcssa80
  %.not.i3860 = icmp samesign ult i64 %.134.lcssa79, 8
  br i1 %.not.i3860, label %.preheader, label %.lr.ph63

.preheader:                                       ; preds = %.lr.ph63, %._crit_edge.thread75
  %.0.i37.lcssa = phi i64 [ 0, %._crit_edge.thread75 ], [ %45, %.lr.ph63 ]
  %44 = icmp samesign ult i64 %.0.i37.lcssa, %.134.lcssa79
  br i1 %44, label %.lr.ph66, label %mbedtls_xor.exit40

.lr.ph63:                                         ; preds = %._crit_edge.thread75, %.lr.ph63
  %45 = phi i64 [ %50, %.lr.ph63 ], [ 8, %._crit_edge.thread75 ]
  %.0.i3761 = phi i64 [ %45, %.lr.ph63 ], [ 0, %._crit_edge.thread75 ]
  %46 = getelementptr inbounds nuw i8, ptr %43, i64 %.0.i3761
  %.0.copyload.i41 = load i64, ptr %46, align 1
  %47 = getelementptr inbounds nuw i8, ptr %38, i64 %.0.i3761
  %.0.copyload.i = load i64, ptr %47, align 1
  %48 = xor i64 %.0.copyload.i, %.0.copyload.i41
  %49 = getelementptr inbounds nuw i8, ptr %42, i64 %.0.i3761
  store i64 %48, ptr %49, align 1
  %50 = add nuw nsw i64 %45, 8
  %.not.i38 = icmp ugt i64 %50, %.134.lcssa79
  br i1 %.not.i38, label %.preheader, label %.lr.ph63, !llvm.loop !13

.lr.ph66:                                         ; preds = %.preheader, %.lr.ph66
  %.1.i3965 = phi i64 [ %57, %.lr.ph66 ], [ %.0.i37.lcssa, %.preheader ]
  %51 = getelementptr inbounds nuw i8, ptr %43, i64 %.1.i3965
  %52 = load i8, ptr %51, align 1, !tbaa !10
  %53 = getelementptr inbounds nuw i8, ptr %38, i64 %.1.i3965
  %54 = load i8, ptr %53, align 1, !tbaa !10
  %55 = xor i8 %54, %52
  %56 = getelementptr inbounds nuw i8, ptr %42, i64 %.1.i3965
  store i8 %55, ptr %56, align 1, !tbaa !10
  %57 = add nuw nsw i64 %.1.i3965, 1
  %exitcond.not = icmp eq i64 %57, %.134.lcssa79
  br i1 %exitcond.not, label %mbedtls_xor.exit40, label %.lr.ph66, !llvm.loop !15

mbedtls_xor.exit40:                               ; preds = %.lr.ph66, %.preheader
  store i64 %.134.lcssa79, ptr %5, align 8, !tbaa !3
  br label %._crit_edge.thread

._crit_edge.thread:                               ; preds = %10, %4, %mbedtls_xor.exit40, %._crit_edge
  ret i32 0
}